target datalayout = "e-m:e-p270:32:32-p271:32:32-p272:64:64-i64:64-i128:128-f80:128-n8:16:32:64-S128"
target triple = "x86_64-pc-linux-gnu"

%struct._zend_executor_globals = type { %struct._zval_struct, %struct._zval_struct, [32 x ptr], ptr, ptr, %struct._zend_array, %struct._zend_array, ptr, i32, i32, ptr, ptr, ptr, ptr, ptr, ptr, i64, ptr, ptr, i32, i32, i64, i32, i32, i32, i8, i8, %struct.zend_atomic_bool_s, %struct.zend_atomic_bool_s, ptr, i64, ptr, ptr, %struct._zend_array, %struct._zend_array, i32, i8, %struct._zval_struct, %struct._zval_struct, %struct._zend_stack, %struct._zend_stack, %struct._zend_stack, ptr, i32, i32, i64, ptr, ptr, ptr, %struct._zend_objects_store, ptr, ptr, ptr, [3 x %struct._zend_op], ptr, i8, i8, i64, i32, i32, ptr, [16 x %struct._HashTableIterator], ptr, %union._zend_function, %struct._zend_op, %struct._zend_array, i64, %struct.zend_get_gc_buffer, ptr, ptr, ptr, i64, i8, i32, ptr, ptr, i64, %struct._zend_call_stack, i64, i64, [6 x ptr] }
%struct.zend_atomic_bool_s = type { i8 }
%struct._zval_struct = type { %union._zend_value, %union.anon, %union.anon.2 }
%union._zend_value = type { i64 }
%union.anon = type { i32 }
%union.anon.2 = type { i32 }
%struct._zend_stack = type { i32, i32, i32, ptr }
%struct._zend_objects_store = type { ptr, i32, i32, i32 }
%struct._HashTableIterator = type { ptr, i32, i32 }
%union._zend_function = type { %struct._zend_op_array }
%struct._zend_op_array = type { i8, [3 x i8], i32, ptr, ptr, ptr, i32, i32, ptr, ptr, ptr, ptr, i32, i32, i32, i32, ptr, ptr, ptr, ptr, ptr, i32, i32, ptr, ptr, ptr, i32, i32, i32, i32, ptr, ptr, [6 x ptr] }
%struct._zend_op = type { ptr, %union._znode_op, %union._znode_op, %union._znode_op, i32, i32, i8, i8, i8, i8 }
%union._znode_op = type { i32 }
%struct._zend_array = type { %struct._zend_refcounted_h, %union.anon.4, i32, %union.anon.6, i32, i32, i32, i32, i64, ptr }
%struct._zend_refcounted_h = type { i32, %union.anon.3 }
%union.anon.3 = type { i32 }
%union.anon.4 = type { i32 }
%union.anon.6 = type { ptr }
%struct.zend_get_gc_buffer = type { ptr, ptr, ptr }
%struct._zend_call_stack = type { ptr, i64 }
%struct._zend_resource = type { %struct._zend_refcounted_h, i64, i32, ptr }
%struct.php_user_stream_wrapper = type { %struct._php_stream_wrapper, ptr, ptr, ptr }
%struct._php_stream_wrapper = type { ptr, ptr, i32 }
%struct._zend_class_entry = type { i8, ptr, %union.anon.8, i32, i32, i32, i32, ptr, ptr, ptr, %struct._zend_array, %struct._zend_array, %struct._zend_array, ptr, ptr, ptr, ptr, ptr, ptr, ptr, ptr, ptr, ptr, ptr, ptr, ptr, ptr, ptr, ptr, ptr, ptr, ptr, %union.anon.9, ptr, ptr, ptr, ptr, i32, i32, %union.anon.10, ptr, ptr, ptr, ptr, i32, ptr, ptr, %union.anon.11 }
%union.anon.8 = type { ptr }
%union.anon.9 = type { ptr }
%union.anon.10 = type { ptr }
%union.anon.11 = type { %struct.anon.12 }
%struct.anon.12 = type { ptr, i32, i32 }
%struct._php_stream_context = type { ptr, %struct._zval_struct, ptr }
%struct._zend_object = type { %struct._zend_refcounted_h, i32, ptr, ptr, ptr, [1 x %struct._zval_struct] }

@executor_globals = external global %struct._zend_executor_globals, align 8
@.str.38 = private unnamed_addr constant [8 x i8] c"context\00", align 1

; Function Attrs: nounwind uwtable
define internal void @user_stream_create_object(ptr noundef %0, ptr noundef %1, ptr noundef %2) #0 {
  %4 = alloca ptr, align 8
  %5 = alloca ptr, align 8
  %6 = alloca ptr, align 8
  %7 = alloca i32, align 4
  %8 = alloca ptr, align 8
  %9 = alloca ptr, align 8
  %10 = alloca ptr, align 8
  %11 = alloca ptr, align 8
  %12 = alloca ptr, align 8
  %13 = alloca ptr, align 8
  %14 = alloca ptr, align 8
  %15 = alloca ptr, align 8
  %16 = alloca ptr, align 8
  %17 = alloca ptr, align 8
  %18 = alloca ptr, align 8
  %19 = alloca ptr, align 8
  %20 = alloca ptr, align 8
  store ptr %0, ptr %18, align 8
  store ptr %1, ptr %19, align 8
  store ptr %2, ptr %20, align 8
  %21 = load ptr, ptr %18, align 8
  %22 = getelementptr inbounds %struct.php_user_stream_wrapper, ptr %21, i32 0, i32 2
  %23 = load ptr, ptr %22, align 8
  %24 = getelementptr inbounds %struct._zend_class_entry, ptr %23, i32 0, i32 4
  %25 = load i32, ptr %24, align 4
  %26 = and i32 %25, 83
  %27 = icmp ne i32 %26, 0
  br i1 %27, label %28, label %33

28:                                               ; preds = %3
  br label %29

29:                                               ; preds = %28
  %30 = load ptr, ptr %20, align 8
  %31 = getelementptr inbounds %struct._zval_struct, ptr %30, i32 0, i32 1
  store i32 0, ptr %31, align 8
  br label %32

32:                                               ; preds = %29
  br label %107

33:                                               ; preds = %3
  %34 = load ptr, ptr %20, align 8
  %35 = load ptr, ptr %18, align 8
  %36 = getelementptr inbounds %struct.php_user_stream_wrapper, ptr %35, i32 0, i32 2
  %37 = load ptr, ptr %36, align 8
  %38 = call i32 @object_init_ex(ptr noundef %34, ptr noundef %37)
  %39 = icmp eq i32 %38, -1
  br i1 %39, label %40, label %45

40:                                               ; preds = %33
  br label %41

41:                                               ; preds = %40
  %42 = load ptr, ptr %20, align 8
  %43 = getelementptr inbounds %struct._zval_struct, ptr %42, i32 0, i32 1
  store i32 0, ptr %43, align 8
  br label %44

44:                                               ; preds = %41
  br label %107

45:                                               ; preds = %33
  %46 = load ptr, ptr %19, align 8
  %47 = icmp ne ptr %46, null
  br i1 %47, label %48, label %65

48:                                               ; preds = %45
  %49 = load ptr, ptr %19, align 8
  %50 = getelementptr inbounds %struct._php_stream_context, ptr %49, i32 0, i32 2
  %51 = load ptr, ptr %50, align 8
  %52 = getelementptr inbounds %struct._zend_resource, ptr %51, i32 0, i32 0
  store ptr %52, ptr %17, align 8
  %53 = load ptr, ptr %17, align 8
  %54 = load i32, ptr %53, align 4
  %55 = add i32 %54, 1
  store i32 %55, ptr %53, align 4
  %56 = load ptr, ptr %20, align 8
  %57 = load ptr, ptr %19, align 8
  %58 = getelementptr inbounds %struct._php_stream_context, ptr %57, i32 0, i32 2
  %59 = load ptr, ptr %58, align 8
  store ptr %56, ptr %14, align 8
  store ptr @.str.38, ptr %15, align 8
  store ptr %59, ptr %16, align 8
  %60 = load ptr, ptr %14, align 8
  %61 = load ptr, ptr %15, align 8
  %62 = load ptr, ptr %15, align 8
  %63 = call i64 @strlen(ptr noundef %62) #14
  %64 = load ptr, ptr %16, align 8
  call void @add_property_resource_ex(ptr noundef %60, ptr noundef %61, i64 noundef %63, ptr noundef %64) #12
  br label %71

65:                                               ; preds = %45
  %66 = load ptr, ptr %20, align 8
  store ptr %66, ptr %12, align 8
  store ptr @.str.38, ptr %13, align 8
  %67 = load ptr, ptr %12, align 8
  %68 = load ptr, ptr %13, align 8
  %69 = load ptr, ptr %13, align 8
  %70 = call i64 @strlen(ptr noundef %69) #14
  call void @add_property_null_ex(ptr noundef %67, ptr noundef %68, i64 noundef %70) #12
  br label %71

71:                                               ; preds = %65, %48
  %72 = load ptr, ptr getelementptr inbounds (%struct._zend_executor_globals, ptr @executor_globals, i32 0, i32 50), align 8
  %73 = icmp ne ptr %72, null
  br i1 %73, label %74, label %80

74:                                               ; preds = %71
  %75 = load ptr, ptr %20, align 8
  call void @zval_ptr_dtor(ptr noundef %75)
  br label %76

76:                                               ; preds = %74
  %77 = load ptr, ptr %20, align 8
  %78 = getelementptr inbounds %struct._zval_struct, ptr %77, i32 0, i32 1
  store i32 0, ptr %78, align 8
  br label %79

79:                                               ; preds = %76
  br label %107

80:                                               ; preds = %71
  %81 = load ptr, ptr %18, align 8
  %82 = getelementptr inbounds %struct.php_user_stream_wrapper, ptr %81, i32 0, i32 2
  %83 = load ptr, ptr %82, align 8
  %84 = getelementptr inbounds %struct._zend_class_entry, ptr %83, i32 0, i32 16
  %85 = load ptr, ptr %84, align 8
  %86 = icmp ne ptr %85, null
  br i1 %86, label %87, label %107

87:                                               ; preds = %80
  %88 = load ptr, ptr %18, align 8
  %89 = getelementptr inbounds %struct.php_user_stream_wrapper, ptr %88, i32 0, i32 2
  %90 = load ptr, ptr %89, align 8
  %91 = getelementptr inbounds %struct._zend_class_entry, ptr %90, i32 0, i32 16
  %92 = load ptr, ptr %91, align 8
  %93 = load ptr, ptr %20, align 8
  %94 = getelementptr inbounds %struct._zval_struct, ptr %93, i32 0, i32 0
  %95 = load ptr, ptr %94, align 8
  store ptr %92, ptr %9, align 8
  store ptr %95, ptr %10, align 8
  store ptr null, ptr %11, align 8
  %96 = load ptr, ptr %9, align 8
  %97 = load ptr, ptr %10, align 8
  %98 = load ptr, ptr %11, align 8
  store ptr %96, ptr %4, align 8
  store ptr %97, ptr %5, align 8
  store ptr %98, ptr %6, align 8
  store i32 0, ptr %7, align 4
  store ptr null, ptr %8, align 8
  %99 = load ptr, ptr %4, align 8
  %100 = load ptr, ptr %5, align 8
  %101 = load ptr, ptr %5, align 8
  %102 = getelementptr inbounds %struct._zend_object, ptr %101, i32 0, i32 2
  %103 = load ptr, ptr %102, align 8
  %104 = load ptr, ptr %6, align 8
  %105 = load i32, ptr %7, align 4
  %106 = load ptr, ptr %8, align 8
  call void @zend_call_known_function(ptr noundef %99, ptr noundef %100, ptr noundef %103, ptr noundef %104, i32 noundef %105, ptr noundef %106, ptr noundef null) #12
  br label %107

107:                                              ; preds = %87, %80, %79, %44, %32
  ret void
}