; Function Attrs: nounwind uwtable
define internal fastcc void @user_stream_create_object(ptr nocapture noundef readonly %0, ptr noundef readonly %1, ptr noundef %2) unnamed_addr #0 {
  %4 = getelementptr inbounds i8, ptr %0, i64 32
  %5 = load ptr, ptr %4, align 8
  %6 = getelementptr inbounds i8, ptr %5, i64 28
  %7 = load i32, ptr %6, align 4
  %8 = and i32 %7, 83
  %.not = icmp eq i32 %8, 0
  br i1 %.not, label %11, label %9

9:                                                ; preds = %3
  %10 = getelementptr inbounds i8, ptr %2, i64 8
  store i32 0, ptr %10, align 8
  br label %36

11:                                               ; preds = %3
  %12 = tail call i32 @object_init_ex(ptr noundef %2, ptr noundef nonnull %5) #11
  %13 = icmp eq i32 %12, -1
  br i1 %13, label %14, label %16

14:                                               ; preds = %11
  %15 = getelementptr inbounds i8, ptr %2, i64 8
  store i32 0, ptr %15, align 8
  br label %36

16:                                               ; preds = %11
  %.not32 = icmp eq ptr %1, null
  br i1 %.not32, label %23, label %17

17:                                               ; preds = %16
  %18 = getelementptr inbounds i8, ptr %1, i64 24
  %19 = load ptr, ptr %18, align 8
  %20 = load i32, ptr %19, align 4
  %21 = add i32 %20, 1
  store i32 %21, ptr %19, align 4
  %22 = load ptr, ptr %18, align 8
  tail call void @add_property_resource_ex(ptr noundef %2, ptr noundef nonnull @.str.38, i64 noundef 7, ptr noundef %22) #11
  br label %24

23:                                               ; preds = %16
  tail call void @add_property_null_ex(ptr noundef %2, ptr noundef nonnull @.str.38, i64 noundef 7) #11
  br label %24

24:                                               ; preds = %23, %17
  %25 = load ptr, ptr getelementptr inbounds (%struct._zend_executor_globals, ptr @executor_globals, i64 0, i32 50), align 8
  %.not33 = icmp eq ptr %25, null
  br i1 %.not33, label %28, label %26

26:                                               ; preds = %24
  tail call void @zval_ptr_dtor(ptr noundef %2) #11
  %27 = getelementptr inbounds i8, ptr %2, i64 8
  store i32 0, ptr %27, align 8
  br label %36

28:                                               ; preds = %24
  %29 = load ptr, ptr %4, align 8
  %30 = getelementptr inbounds i8, ptr %29, i64 256
  %31 = load ptr, ptr %30, align 8
  %.not34 = icmp eq ptr %31, null
  br i1 %.not34, label %36, label %32

32:                                               ; preds = %28
  %33 = load ptr, ptr %2, align 8
  %34 = getelementptr inbounds i8, ptr %33, i64 16
  %35 = load ptr, ptr %34, align 8
  tail call void @zend_call_known_function(ptr noundef nonnull %31, ptr noundef %33, ptr noundef %35, ptr noundef null, i32 noundef 0, ptr noundef null, ptr noundef null) #11
  br label %36

36:                                               ; preds = %32, %28, %26, %14, %9
  ret void
}